target datalayout = "e-m:e-p270:32:32-p271:32:32-p272:64:64-i64:64-i128:128-f80:128-n8:16:32:64-S128"
target triple = "x86_64-pc-linux-gnu"

@libctx = internal global ptr null, align 8
@.str = private unnamed_addr constant [14 x i8] c"test_pkey_sig\00", align 1
@.str.1 = private unnamed_addr constant [29 x i8] c"test_alternative_keygen_init\00", align 1
@.str.2 = private unnamed_addr constant [13 x i8] c"test_pkey_eq\00", align 1
@.str.3 = private unnamed_addr constant [16 x i8] c"test_pkey_store\00", align 1
@.str.4 = private unnamed_addr constant [17 x i8] c"test_pkey_delete\00", align 1
@.str.5 = private unnamed_addr constant [24 x i8] c"test_pkey_store_open_ex\00", align 1

; Function Attrs: nounwind uwtable
define dso_local i32 @setup_tests() #0 {
  %1 = alloca i32, align 4
  %2 = call ptr @OSSL_LIB_CTX_new()
  store ptr %2, ptr @libctx, align 8, !tbaa !4
  %3 = load ptr, ptr @libctx, align 8, !tbaa !4
  %4 = icmp eq ptr %3, null
  br i1 %4, label %5, label %6

5:                                                ; preds = %0
  store i32 0, ptr %1, align 4
  br label %7

6:                                                ; preds = %0
  call void @add_test(ptr noundef @.str, ptr noundef @test_pkey_sig)
  call void @add_test(ptr noundef @.str.1, ptr noundef @test_alternative_keygen_init)
  call void @add_test(ptr noundef @.str.2, ptr noundef @test_pkey_eq)
  call void @add_all_tests(ptr noundef @.str.3, ptr noundef @test_pkey_store, i32 noundef 2, i32 noundef 1)
  call void @add_test(ptr noundef @.str.4, ptr noundef @test_pkey_delete)
  call void @add_test(ptr noundef @.str.5, ptr noundef @test_pkey_store_open_ex)
  store i32 1, ptr %1, align 4
  br label %7

7:                                                ; preds = %6, %5
  %8 = load i32, ptr %1, align 4
  ret i32 %8
}