; Function Attrs: nounwind uwtable
define dso_local range(i32 0, 2) i32 @setup_tests() local_unnamed_addr #0 {
  %1 = tail call ptr @OSSL_LIB_CTX_new() #3
  store ptr %1, ptr @libctx, align 8, !tbaa !4
  %2 = icmp eq ptr %1, null
  br i1 %2, label %4, label %3

3:                                                ; preds = %0
  tail call void @add_test(ptr noundef nonnull @.str, ptr noundef nonnull @test_pkey_sig) #3
  tail call void @add_test(ptr noundef nonnull @.str.1, ptr noundef nonnull @test_alternative_keygen_init) #3
  tail call void @add_test(ptr noundef nonnull @.str.2, ptr noundef nonnull @test_pkey_eq) #3
  tail call void @add_all_tests(ptr noundef nonnull @.str.3, ptr noundef nonnull @test_pkey_store, i32 noundef 2, i32 noundef 1) #3
  tail call void @add_test(ptr noundef nonnull @.str.4, ptr noundef nonnull @test_pkey_delete) #3
  tail call void @add_test(ptr noundef nonnull @.str.5, ptr noundef nonnull @test_pkey_store_open_ex) #3
  br label %4

4:                                                ; preds = %0, %3
  %.0 = phi i32 [ 1, %3 ], [ 0, %0 ]
  ret i32 %.0
}